; Function Attrs: nounwind uwtable
define hidden noundef ptr @BIO_new(ptr noundef %0) local_unnamed_addr #0 {
  %2 = tail call noalias dereferenceable_or_null(80) ptr @malloc(i64 noundef 80) #17
  %3 = icmp eq ptr %2, null
  br i1 %3, label %4, label %5

4:                                                ; preds = %1
  tail call void @ERR_put_error(i32 noundef 17, i32 noundef 0, i32 noundef 65, ptr noundef nonnull @.str, i32 noundef 93) #18
  br label %bio_set.exit

5:                                                ; preds = %1
  %6 = getelementptr inbounds nuw i8, ptr %2, i64 8
  tail call void @llvm.memset.p0.i64(ptr noundef nonnull align 8 dereferenceable(80) %6, i8 0, i64 72, i1 false)
  store ptr %0, ptr %2, align 8, !tbaa !6
  %7 = getelementptr inbounds nuw i8, ptr %2, i64 28
  store i32 1, ptr %7, align 4, !tbaa !16
  %8 = getelementptr inbounds nuw i8, ptr %2, i64 44
  store i32 1, ptr %8, align 4, !tbaa !17
  %9 = getelementptr inbounds nuw i8, ptr %0, i64 56
  %10 = load ptr, ptr %9, align 8, !tbaa !18
  %.not.i = icmp eq ptr %10, null
  br i1 %.not.i, label %bio_set.exit, label %11

11:                                               ; preds = %5
  %12 = tail call i32 %10(ptr noundef nonnull %2) #18
  %.not9.i = icmp eq i32 %12, 0
  br i1 %.not9.i, label %13, label %bio_set.exit

13:                                               ; preds = %11
  tail call void @free(ptr noundef nonnull %2) #18
  br label %bio_set.exit

bio_set.exit:                                     ; preds = %11, %5, %13, %4
  %.06 = phi ptr [ null, %4 ], [ null, %13 ], [ %2, %5 ], [ %2, %11 ]
  ret ptr %.06
}